target datalayout = "e-m:e-p270:32:32-p271:32:32-p272:64:64-i64:64-i128:128-f80:128-n8:16:32:64-S128"
target triple = "x86_64-pc-linux-gnu"

%"struct.duckdb::utf8proc_property_struct" = type { i16, i16, i16, i16, i16, i16, i16, i16, i16, i16, i16, [2 x i8] }

; Function Attrs: mustprogress nounwind uwtable
define internal noundef i32 @_ZN6duckdbL21seqindex_decode_entryEPPKt(ptr noundef %0) #0 {
  %2 = alloca ptr, align 8
  %3 = alloca i32, align 4
  store ptr %0, ptr %2, align 8, !tbaa !48
  call void @llvm.lifetime.start.p0(i64 4, ptr %3) #6
  %4 = load ptr, ptr %2, align 8, !tbaa !48
  %5 = load ptr, ptr %4, align 8, !tbaa !25
  %6 = load i16, ptr %5, align 2, !tbaa !15
  %7 = zext i16 %6 to i32
  store i32 %7, ptr %3, align 4, !tbaa !12
  %8 = load i32, ptr %3, align 4, !tbaa !12
  %9 = and i32 %8, 63488
  %10 = icmp eq i32 %9, 55296
  br i1 %10, label %11, label %27

11:                                               ; preds = %1
  %12 = load ptr, ptr %2, align 8, !tbaa !48
  %13 = load ptr, ptr %12, align 8, !tbaa !25
  %14 = getelementptr inbounds i16, ptr %13, i64 1
  %15 = load ptr, ptr %2, align 8, !tbaa !48
  store ptr %14, ptr %15, align 8, !tbaa !25
  %16 = load i32, ptr %3, align 4, !tbaa !12
  %17 = and i32 %16, 1023
  %18 = shl i32 %17, 10
  %19 = load ptr, ptr %2, align 8, !tbaa !48
  %20 = load ptr, ptr %19, align 8, !tbaa !25
  %21 = load i16, ptr %20, align 2, !tbaa !15
  %22 = zext i16 %21 to i32
  %23 = and i32 %22, 1023
  %24 = or i32 %18, %23
  store i32 %24, ptr %3, align 4, !tbaa !12
  %25 = load i32, ptr %3, align 4, !tbaa !12
  %26 = add nsw i32 %25, 65536
  store i32 %26, ptr %3, align 4, !tbaa !12
  br label %27

27:                                               ; preds = %11, %1
  %28 = load i32, ptr %3, align 4, !tbaa !12
  call void @llvm.lifetime.end.p0(i64 4, ptr %3) #6
  ret i32 %28
}

; Function Attrs: mustprogress nounwind uwtable
define internal noundef ptr @_ZN6duckdbL19unsafe_get_propertyEi(i32 noundef %0) #0 {
  %2 = alloca i32, align 4
  store i32 %0, ptr %2, align 4, !tbaa !12
  %3 = load i32, ptr %2, align 4, !tbaa !12
  %4 = ashr i32 %3, 8
  %5 = sext i32 %4 to i64
  %6 = getelementptr inbounds [4352 x i16], ptr @_ZN6duckdbL20utf8proc_stage1tableE, i64 0, i64 %5
  %7 = load i16, ptr %6, align 2, !tbaa !15
  %8 = zext i16 %7 to i32
  %9 = load i32, ptr %2, align 4, !tbaa !12
  %10 = and i32 %9, 255
  %11 = add nsw i32 %8, %10
  %12 = sext i32 %11 to i64
  %13 = getelementptr inbounds [44800 x i16], ptr @_ZN6duckdbL20utf8proc_stage2tableE, i64 0, i64 %12
  %14 = load i16, ptr %13, align 2, !tbaa !15
  %15 = zext i16 %14 to i32
  %16 = sext i32 %15 to i64
  %17 = getelementptr inbounds %"struct.duckdb::utf8proc_property_struct", ptr @_ZN6duckdbL19utf8proc_propertiesE, i64 %16
  ret ptr %17
}

; Function Attrs: mustprogress uwtable
define internal noundef i32 @_ZN6duckdbL21seqindex_decode_indexEj(i32 noundef %0) #2 {
  %2 = alloca i32, align 4
  %3 = alloca ptr, align 8
  store i32 %0, ptr %2, align 4, !tbaa !12
  call void @llvm.lifetime.start.p0(i64 8, ptr %3) #6
  %4 = load i32, ptr %2, align 4, !tbaa !12
  %5 = zext i32 %4 to i64
  %6 = getelementptr inbounds nuw [12682 x i16], ptr @_ZN6duckdbL18utf8proc_sequencesE, i64 0, i64 %5
  store ptr %6, ptr %3, align 8, !tbaa !25
  %7 = call noundef i32 @_ZN6duckdbL21seqindex_decode_entryEPPKt(ptr noundef %3)
  call void @llvm.lifetime.end.p0(i64 8, ptr %3) #6
  ret i32 %7
}

; Function Attrs: mustprogress uwtable
define noundef ptr @_ZN6duckdb21utf8proc_get_propertyEi(i32 noundef %0) #2 {
  %2 = alloca i32, align 4
  store i32 %0, ptr %2, align 4, !tbaa !12
  %3 = load i32, ptr %2, align 4, !tbaa !12
  %4 = icmp slt i32 %3, 0
  br i1 %4, label %8, label %5

5:                                                ; preds = %1
  %6 = load i32, ptr %2, align 4, !tbaa !12
  %7 = icmp sge i32 %6, 1114112
  br i1 %7, label %8, label %9

8:                                                ; preds = %5, %1
  br label %12

9:                                                ; preds = %5
  %10 = load i32, ptr %2, align 4, !tbaa !12
  %11 = call noundef ptr @_ZN6duckdbL19unsafe_get_propertyEi(i32 noundef %10)
  br label %12

12:                                               ; preds = %9, %8
  %13 = phi ptr [ @_ZN6duckdbL19utf8proc_propertiesE, %8 ], [ %11, %9 ]
  ret ptr %13
}

; Function Attrs: mustprogress uwtable
define noundef i32 @_ZN6duckdb16utf8proc_totitleEi(i32 noundef %0) #2 {
  %2 = alloca i32, align 4
  %3 = alloca i32, align 4
  store i32 %0, ptr %2, align 4, !tbaa !12
  call void @llvm.lifetime.start.p0(i64 4, ptr %3) #6
  %4 = load i32, ptr %2, align 4, !tbaa !12
  %5 = call noundef ptr @_ZN6duckdb21utf8proc_get_propertyEi(i32 noundef %4)
  %6 = getelementptr inbounds nuw %"struct.duckdb::utf8proc_property_struct", ptr %5, i32 0, i32 8
  %7 = load i16, ptr %6, align 4, !tbaa !28
  %8 = zext i16 %7 to i32
  store i32 %8, ptr %3, align 4, !tbaa !12
  %9 = load i32, ptr %3, align 4, !tbaa !12
  %10 = icmp ne i32 %9, 65535
  br i1 %10, label %11, label %14

11:                                               ; preds = %1
  %12 = load i32, ptr %3, align 4, !tbaa !12
  %13 = call noundef i32 @_ZN6duckdbL21seqindex_decode_indexEj(i32 noundef %12)
  br label %16

14:                                               ; preds = %1
  %15 = load i32, ptr %2, align 4, !tbaa !12
  br label %16

16:                                               ; preds = %14, %11
  %17 = phi i32 [ %13, %11 ], [ %15, %14 ]
  call void @llvm.lifetime.end.p0(i64 4, ptr %3) #6
  ret i32 %17
}